; Function Attrs: nounwind uwtable
define hidden void @zim_PDO_beginTransaction(ptr noundef readonly captures(none) %0, ptr noundef writeonly captures(none) %1) #0 {
  %3 = getelementptr inbounds nuw i8, ptr %0, i64 32
  %4 = load ptr, ptr %3, align 8, !tbaa !4
  %5 = getelementptr i8, ptr %4, i64 -8
  %.val = load ptr, ptr %5, align 8, !tbaa !90
  %6 = getelementptr inbounds nuw i8, ptr %0, i64 44
  %7 = load i32, ptr %6, align 4, !tbaa !4
  %.not = icmp eq i32 %7, 0
  br i1 %.not, label %9, label %8, !prof !66

8:                                                ; preds = %2
  tail call void @zend_wrong_parameters_none_error() #13
  br label %56

9:                                                ; preds = %2
  %10 = getelementptr inbounds nuw i8, ptr %.val, i64 120
  %11 = load ptr, ptr %10, align 8, !tbaa !106
  %.not13 = icmp eq ptr %11, null
  br i1 %.not13, label %12, label %20

12:                                               ; preds = %9
  %13 = getelementptr inbounds nuw i8, ptr %4, i64 16
  %14 = load ptr, ptr %13, align 8, !tbaa !119
  %15 = getelementptr inbounds nuw i8, ptr %14, i64 8
  %16 = load ptr, ptr %15, align 8, !tbaa !79
  %17 = getelementptr inbounds nuw i8, ptr %16, i64 24
  tail call void (ptr, ptr, ...) @zend_throw_error(ptr noundef null, ptr noundef nonnull @.str.24, ptr noundef nonnull %17) #13
  %18 = load ptr, ptr getelementptr inbounds nuw (i8, ptr @executor_globals, i64 960), align 8, !tbaa !64
  %19 = icmp ne ptr %18, null
  tail call void @llvm.assume(i1 %19)
  br label %56

20:                                               ; preds = %9
  %21 = load ptr, ptr %.val, align 8, !tbaa !59
  %22 = getelementptr inbounds nuw i8, ptr %21, i64 112
  %23 = load ptr, ptr %22, align 8, !tbaa !127
  %.not.i = icmp eq ptr %23, null
  br i1 %.not.i, label %pdo_is_in_transaction.exit, label %24

24:                                               ; preds = %20
  %25 = tail call zeroext i1 %23(ptr noundef nonnull %.val) #13
  br i1 %25, label %29, label %._crit_edge

._crit_edge:                                      ; preds = %24
  %.pre = load ptr, ptr %.val, align 8, !tbaa !59
  br label %34

pdo_is_in_transaction.exit:                       ; preds = %20
  %26 = getelementptr inbounds nuw i8, ptr %.val, i64 32
  %27 = load i32, ptr %26, align 8
  %28 = and i32 %27, 16
  %.not16 = icmp eq i32 %28, 0
  br i1 %.not16, label %34, label %29

29:                                               ; preds = %24, %pdo_is_in_transaction.exit
  %30 = tail call ptr @php_pdo_get_exception() #13
  %31 = tail call ptr (ptr, i64, ptr, ...) @zend_throw_exception_ex(ptr noundef %30, i64 noundef 0, ptr noundef nonnull @.str.32) #13
  %32 = load ptr, ptr getelementptr inbounds nuw (i8, ptr @executor_globals, i64 960), align 8, !tbaa !64
  %33 = icmp ne ptr %32, null
  tail call void @llvm.assume(i1 %33)
  br label %56

34:                                               ; preds = %._crit_edge, %pdo_is_in_transaction.exit
  %35 = phi ptr [ %.pre, %._crit_edge ], [ %21, %pdo_is_in_transaction.exit ]
  %36 = getelementptr inbounds nuw i8, ptr %35, i64 32
  %37 = load ptr, ptr %36, align 8, !tbaa !128
  %.not14 = icmp eq ptr %37, null
  br i1 %.not14, label %38, label %43

38:                                               ; preds = %34
  %39 = tail call ptr @php_pdo_get_exception() #13
  %40 = tail call ptr (ptr, i64, ptr, ...) @zend_throw_exception_ex(ptr noundef %39, i64 noundef 0, ptr noundef nonnull @.str.33) #13
  %41 = load ptr, ptr getelementptr inbounds nuw (i8, ptr @executor_globals, i64 960), align 8, !tbaa !64
  %42 = icmp ne ptr %41, null
  tail call void @llvm.assume(i1 %42)
  br label %56

43:                                               ; preds = %34
  %44 = tail call zeroext i1 %37(ptr noundef nonnull %.val) #13
  br i1 %44, label %45, label %50

45:                                               ; preds = %43
  %46 = getelementptr inbounds nuw i8, ptr %.val, i64 32
  %47 = load i32, ptr %46, align 8
  %48 = or i32 %47, 16
  store i32 %48, ptr %46, align 8
  %49 = getelementptr inbounds nuw i8, ptr %1, i64 8
  store i32 3, ptr %49, align 8, !tbaa !4
  br label %56

50:                                               ; preds = %43
  %51 = getelementptr inbounds nuw i8, ptr %.val, i64 56
  %52 = tail call i32 @strcmp(ptr noundef nonnull dereferenceable(1) %51, ptr noundef nonnull dereferenceable(6) @.str.25) #14
  %.not15 = icmp eq i32 %52, 0
  br i1 %.not15, label %54, label %53

53:                                               ; preds = %50
  tail call void @pdo_handle_error(ptr noundef nonnull %.val, ptr noundef null)
  br label %54

54:                                               ; preds = %53, %50
  %55 = getelementptr inbounds nuw i8, ptr %1, i64 8
  store i32 2, ptr %55, align 8, !tbaa !4
  br label %56

56:                                               ; preds = %54, %45, %38, %29, %12, %8
  ret void
}